; Function Attrs: mustprogress nounwind uwtable
define dso_local noundef zeroext i1 @_ZN5clang6format20AffectedRangeManager22affectsCharSourceRangeERKNS_15CharSourceRangeE(ptr noundef nonnull align 8 dereferenceable(120) %0, ptr nocapture noundef nonnull readonly align 4 dereferenceable(9) %1) local_unnamed_addr #0 align 2 {
  %3 = getelementptr inbounds nuw i8, ptr %0, i64 8
  %4 = load ptr, ptr %3, align 8
  %5 = tail call noundef i64 @_ZNK4llvm15SmallVectorBaseIjE4sizeEv(ptr noundef nonnull align 8 dereferenceable(16) %3) #2
  %6 = getelementptr inbounds %"class.clang::CharSourceRange", ptr %4, i64 %5
  %.not19.not = icmp eq i64 %5, 0
  br i1 %.not19.not, label %._crit_edge, label %.lr.ph

.lr.ph:                                           ; preds = %2
  %7 = getelementptr inbounds nuw i8, ptr %1, i64 4
  br label %8

8:                                                ; preds = %.lr.ph, %15
  %.01520 = phi ptr [ %4, %.lr.ph ], [ %16, %15 ]
  %9 = load ptr, ptr %0, align 8
  %.sroa.0.0.copyload.i.i = load i32, ptr %7, align 4
  %.sroa.0.0.copyload.i.i16 = load i32, ptr %.01520, align 4
  %10 = tail call noundef zeroext i1 @_ZNK5clang13SourceManager25isBeforeInTranslationUnitENS_14SourceLocationES1_(ptr noundef nonnull align 8 dereferenceable(696) %9, i32 %.sroa.0.0.copyload.i.i, i32 %.sroa.0.0.copyload.i.i16) #2
  br i1 %10, label %15, label %11

11:                                               ; preds = %8
  %12 = load ptr, ptr %0, align 8
  %13 = getelementptr inbounds nuw i8, ptr %.01520, i64 4
  %.sroa.0.0.copyload.i.i17 = load i32, ptr %13, align 4
  %.sroa.0.0.copyload.i.i18 = load i32, ptr %1, align 4
  %14 = tail call noundef zeroext i1 @_ZNK5clang13SourceManager25isBeforeInTranslationUnitENS_14SourceLocationES1_(ptr noundef nonnull align 8 dereferenceable(696) %12, i32 %.sroa.0.0.copyload.i.i17, i32 %.sroa.0.0.copyload.i.i18) #2
  br i1 %14, label %15, label %._crit_edge

15:                                               ; preds = %8, %11
  %16 = getelementptr inbounds i8, ptr %.01520, i64 12
  %.not.not = icmp eq ptr %16, %6
  br i1 %.not.not, label %._crit_edge, label %8

._crit_edge:                                      ; preds = %11, %15, %2
  %.not.lcssa = phi i1 [ false, %2 ], [ false, %15 ], [ true, %11 ]
  ret i1 %.not.lcssa
}